ccopy_reg
_reconstructor
p0
(clasio.las
LASFile
p1
c__builtin__
object
p2
Ntp3
Rp4
(dp5
S'data'
p6
cnumpy.core.multiarray
_reconstruct
p7
(cnumpy
ndarray
p8
(I0
tp9
S'b'
p10
tp11
Rp12
(I1
(L3L
L8L
tp13
cnumpy
dtype
p14
(S'f8'
p15
I0
I1
tp16
Rp17
(I3
S'<'
p18
NNNI-1
I-1
I0
tp19
bI00
S'\x00\x00\x00\x00\x00\x18\x9a@\xcd\xcc\xcc\xcc\xcc\xdc^@\x00\x00\x00\x00\x00\xec\xa3@\xcd\xcc\xcc\xcc\xcc\xcc\xdc?\xcd\xcc\xcc\xcc\xcc\xdc^@\xcd\xcc\xcc\xcc\xcc\xdc^@\xcd\xcc\xcc\xcc\xcc\x8c[@ffffffZ@\x00\x00\x00\x00\x80\x17\x9a@\xcd\xcc\xcc\xcc\xcc\xdc^@\x00\x00\x00\x00\x00\xec\xa3@\xcd\xcc\xcc\xcc\xcc\xcc\xdc?\xcd\xcc\xcc\xcc\xcc\xdc^@\xcd\xcc\xcc\xcc\xcc\xdc^@\xcd\xcc\xcc\xcc\xcc\x8c[@ffffffZ@\x00\x00\x00\x00\x00\x17\x9a@\xcd\xcc\xcc\xcc\xcc\xdc^@\x00\x00\x00\x00\x00\xec\xa3@\xcd\xcc\xcc\xcc\xcc\xcc\xdc?\xcd\xcc\xcc\xcc\xcc\xdc^@\xcd\xcc\xcc\xcc\xcc\xdc^@\xcd\xcc\xcc\xcc\xcc\x8c[@ffffffZ@'
p20
tp21
bsS'index_unit'
p22
S'M'
p23
sS'sections'
p24
(dp25
S'Parameter'
p26
g0
(clasio.las_items
SectionItems
p27
c__builtin__
list
p28
(lp29
clasio.las_items
HeaderItem
p30
((lp31
tp32
Rp33
(dp34
S'mnemonic'
p35
S'BHT'
p36
sS'descr'
p37
S'BOTTOM HOLE TEMPERATURE'
p38
sS'useful_mnemonic'
p39
g36
sS'value'
p40
F35.5
sS'original_mnemonic'
p41
g36
sS'unit'
p42
S'DEGC'
p43
sbag30
((lp44
tp45
Rp46
(dp47
g35
S'BS'
p48
sg37
S'BIT SIZE'
p49
sg39
g48
sg40
F200.0
sg41
g48
sg42
S'MM'
p50
sbag30
((lp51
tp52
Rp53
(dp54
g35
S'FD'
p55
sg37
S'FLUID DENSITY'
p56
sg39
g55
sg40
F1000.0
sg41
g55
sg42
S'K/M3'
p57
sbag30
((lp58
tp59
Rp60
(dp61
g35
S'MATR'
p62
sg37
S'NEUTRON MATRIX(0=LIME,1=SAND,2=DOLO)'
p63
sg39
g62
sg40
F0.0
sg41
g62
sg42
S''
p64
sbag30
((lp65
tp66
Rp67
(dp68
g35
S'MDEN'
p69
sg37
S'LOGGING MATRIX DENSITY'
p70
sg39
g69
sg40
F2710.0
sg41
g69
sg42
g64
sbag30
((lp71
tp72
Rp73
(dp74
g35
S'RMF'
p75
sg37
S'MUD FILTRATE RESISTIVITY'
p76
sg39
g75
sg40
F0.216
sg41
g75
sg42
S'OHMM'
p77
sbag30
((lp78
tp79
Rp80
(dp81
g35
S'DFD'
p82
sg37
S'DRILL FLUID DENSITY'
p83
sg39
g82
sg40
F1525.0
sg41
g82
sg42
S'K/M3'
p84
sbatp85
Rp86
sS'Version'
p87
g0
(g27
g28
(lp88
g30
((lp89
tp90
Rp91
(dp92
g35
S'VERS'
p93
sg37
S'CWLS LOG ASCII STANDARD -VERSION 1.2'
p94
sg39
g93
sg40
F1.2
sg41
g93
sg42
g64
sbag30
((lp95
tp96
Rp97
(dp98
g35
S'WRAP'
p99
sg37
S'ONE LINE PER DEPTH STEP'
p100
sg39
g99
sg40
S'NO'
p101
sg41
g99
sg42
g64
sbatp102
Rp103
sS'Well'
p104
g0
(g27
g28
(lp105
g30
((lp106
tp107
Rp108
(dp109
g35
S'STRT'
p110
sg37
g64
sg39
g110
sg40
F1670.0
sg41
g110
sg42
g23
sbag30
((lp111
tp112
Rp113
(dp114
g35
S'STOP'
p115
sg37
g64
sg39
g115
sg40
F1660.0
sg41
g115
sg42
g23
sbag30
((lp116
tp117
Rp118
(dp119
g35
S'STEP'
p120
sg37
g64
sg39
g120
sg40
F-0.125
sg41
g120
sg42
g23
sbag30
((lp121
tp122
Rp123
(dp124
g35
S'NULL'
p125
sg37
g64
sg39
g125
sg40
F-999.25
sg41
g125
sg42
g64
sbag30
((lp126
tp127
Rp128
(dp129
g35
S'COMP'
p130
sg37
S'COMPANY'
p131
sg39
g130
sg40
S'# ANY OIL COMPANY LTD.'
p132
sg41
g130
sg42
g64
sbag30
((lp133
tp134
Rp135
(dp136
g35
S'WELL'
p137
sg37
S'WELL'
p138
sg39
g137
sg40
S'ANY ET AL OIL WELL #12'
p139
sg41
g137
sg42
g64
sbag30
((lp140
tp141
Rp142
(dp143
g35
S'FLD'
p144
sg37
S'FIELD'
p145
sg39
g144
sg40
S'EDAM'
p146
sg41
g144
sg42
g64
sbag30
((lp147
tp148
Rp149
(dp150
g35
S'LOC'
p151
sg37
S'LOCATION'
p152
sg39
g151
sg40
S'A9-16-49-20W3M'
p153
sg41
g151
sg42
g64
sbag30
((lp154
tp155
Rp156
(dp157
g35
S'PROV'
p158
sg37
S'PROVINCE'
p159
sg39
g158
sg40
S'SASKATCHEWAN'
p160
sg41
g158
sg42
g64
sbag30
((lp161
tp162
Rp163
(dp164
g35
S'SRVC'
p165
sg37
S'SERVICE COMPANY'
p166
sg39
g165
sg40
S'ANY LOGGING COMPANY LTD.'
p167
sg41
g165
sg42
g64
sbag30
((lp168
tp169
Rp170
(dp171
g35
S'DATE'
p172
sg37
S'LOG DATE'
p173
sg39
g172
sg40
S'25-DEC-1988'
p174
sg41
g172
sg42
g64
sbag30
((lp175
tp176
Rp177
(dp178
g35
S'UWI'
p179
sg37
S'UNIQUE WELL ID'
p180
sg39
g179
sg40
S'100091604920W300'
p181
sg41
g179
sg42
g64
sbatp182
Rp183
sS'Other'
p184
S'Note: The logging tools became stuck at 625 meters causing the data\nbetween 625 meters and 615 meters to be invalid.'
p185
sS'Curves'
p186
g0
(g27
g28
(lp187
clasio.las_items
CurveItem
p188
((lp189
tp190
Rp191
(dp192
g35
S'DEPT'
p193
sg37
S'1  DEPTH'
p194
sg39
g193
sg40
g64
sg41
g193
sg6
g7
(g8
(I0
tp195
g10
tp196
Rp197
(I1
(L3L
tp198
g17
I00
S'\x00\x00\x00\x00\x00\x18\x9a@\x00\x00\x00\x00\x80\x17\x9a@\x00\x00\x00\x00\x00\x17\x9a@'
p199
tp200
bsg42
g23
sbag188
((lp201
tp202
Rp203
(dp204
g35
S'DT'
p205
sg37
S'2  SONIC TRANSIT TIME'
p206
sg39
g205
sg40
g64
sg41
g205
sg6
g7
(g8
(I0
tp207
g10
tp208
Rp209
(I1
(L3L
tp210
g17
I00
S'\xcd\xcc\xcc\xcc\xcc\xdc^@\xcd\xcc\xcc\xcc\xcc\xdc^@\xcd\xcc\xcc\xcc\xcc\xdc^@'
p211
tp212
bsg42
S'US/M'
p213
sbag188
((lp214
tp215
Rp216
(dp217
g35
S'RHOB'
p218
sg37
S'3  BULK DENSITY'
p219
sg39
g218
sg40
g64
sg41
g218
sg6
g7
(g8
(I0
tp220
g10
tp221
Rp222
(I1
(L3L
tp223
g17
I00
S'\x00\x00\x00\x00\x00\xec\xa3@\x00\x00\x00\x00\x00\xec\xa3@\x00\x00\x00\x00\x00\xec\xa3@'
p224
tp225
bsg42
S'K/M3'
p226
sbag188
((lp227
tp228
Rp229
(dp230
g35
S'NPHI'
p231
sg37
S'4   NEUTRON POROSITY'
p232
sg39
g231
sg40
g64
sg41
g231
sg6
g7
(g8
(I0
tp233
g10
tp234
Rp235
(I1
(L3L
tp236
g17
I00
S'\xcd\xcc\xcc\xcc\xcc\xcc\xdc?\xcd\xcc\xcc\xcc\xcc\xcc\xdc?\xcd\xcc\xcc\xcc\xcc\xcc\xdc?'
p237
tp238
bsg42
S'V/V'
p239
sbag188
((lp240
tp241
Rp242
(dp243
g35
S'SFLU'
p244
sg37
S'5  RXO RESISTIVITY'
p245
sg39
g244
sg40
g64
sg41
g244
sg6
g7
(g8
(I0
tp246
g10
tp247
Rp248
(I1
(L3L
tp249
g17
I00
S'\xcd\xcc\xcc\xcc\xcc\xdc^@\xcd\xcc\xcc\xcc\xcc\xdc^@\xcd\xcc\xcc\xcc\xcc\xdc^@'
p250
tp251
bsg42
S'OHMM'
p252
sbag188
((lp253
tp254
Rp255
(dp256
g35
S'SFLA'
p257
sg37
S'6  SHALLOW RESISTIVITY'
p258
sg39
g257
sg40
g64
sg41
g257
sg6
g7
(g8
(I0
tp259
g10
tp260
Rp261
(I1
(L3L
tp262
g17
I00
S'\xcd\xcc\xcc\xcc\xcc\xdc^@\xcd\xcc\xcc\xcc\xcc\xdc^@\xcd\xcc\xcc\xcc\xcc\xdc^@'
p263
tp264
bsg42
S'OHMM'
p265
sbag188
((lp266
tp267
Rp268
(dp269
g35
S'ILM'
p270
sg37
S'7  MEDIUM RESISTIVITY'
p271
sg39
g270
sg40
g64
sg41
g270
sg6
g7
(g8
(I0
tp272
g10
tp273
Rp274
(I1
(L3L
tp275
g17
I00
S'\xcd\xcc\xcc\xcc\xcc\x8c[@\xcd\xcc\xcc\xcc\xcc\x8c[@\xcd\xcc\xcc\xcc\xcc\x8c[@'
p276
tp277
bsg42
S'OHMM'
p278
sbag188
((lp279
tp280
Rp281
(dp282
g35
S'ILD'
p283
sg37
S'8  DEEP RESISTIVITY'
p284
sg39
g283
sg40
g64
sg41
g283
sg6
g7
(g8
(I0
tp285
g10
tp286
Rp287
(I1
(L3L
tp288
g17
I00
S'ffffffZ@ffffffZ@ffffffZ@'
p289
tp290
bsg42
S'OHMM'
p291
sbatp292
Rp293
ssS'_text'
p294
S'~VERSION INFORMATION\n VERS.                  1.2:   CWLS LOG ASCII STANDARD -VERSION 1.2\n WRAP.                  NO:   ONE LINE PER DEPTH STEP\n~WELL INFORMATION BLOCK\n#MNEM.UNIT       DATA TYPE    INFORMATION\n#---------    -------------   ------------------------------\n STRT.M        1670.000000:\n STOP.M        1660.000000:\n STEP.M            -0.1250:\n NULL.           -999.2500:\n COMP.             COMPANY:   # ANY OIL COMPANY LTD.\n WELL.                WELL:   ANY ET AL OIL WELL #12\n FLD .               FIELD:   EDAM\n LOC .            LOCATION:   A9-16-49-20W3M\n PROV.            PROVINCE:   SASKATCHEWAN\n SRVC.     SERVICE COMPANY:   ANY LOGGING COMPANY LTD.\n DATE.            LOG DATE:   25-DEC-1988\n UWI .      UNIQUE WELL ID:   100091604920W300\n~CURVE INFORMATION\n#MNEM.UNIT      API CODE      CURVE DESCRIPTION\n#---------    -------------   ------------------------------\n DEPT.M                      :  1  DEPTH\n DT  .US/M     \t\t     :  2  SONIC TRANSIT TIME\n RHOB.K/M3                   :  3  BULK DENSITY\n NPHI.V/V                    :  4   NEUTRON POROSITY\n SFLU.OHMM                   :  5  RXO RESISTIVITY\n SFLA.OHMM                   :  6  SHALLOW RESISTIVITY\n ILM .OHMM                   :  7  MEDIUM RESISTIVITY\n ILD .OHMM                   :  8  DEEP RESISTIVITY\n~PARAMETER INFORMATION\n#MNEM.UNIT        VALUE       DESCRIPTION\n#---------    -------------   ------------------------------\n BHT .DEGC         35.5000:   BOTTOM HOLE TEMPERATURE\n BS  .MM          200.0000:   BIT SIZE\n FD  .K/M3       1000.0000:   FLUID DENSITY\n MATR.              0.0000:   NEUTRON MATRIX(0=LIME,1=SAND,2=DOLO)\n MDEN.           2710.0000:   LOGGING MATRIX DENSITY\n RMF .OHMM          0.2160:   MUD FILTRATE RESISTIVITY\n DFD .K/M3       1525.0000:   DRILL FLUID DENSITY\n~Other\n     Note: The logging tools became stuck at 625 meters causing the data\n\t   between 625 meters and 615 meters to be invalid.\n~A  DEPTH     DT       RHOB     NPHI     SFLU     SFLA      ILM      ILD\n1670.000   123.450 2550.000    0.450  123.450  123.450  110.200  105.600\n1669.875   123.450 2550.000    0.450  123.450  123.450  110.200  105.600\n1669.750   123.450 2550.000    0.450  123.450  123.450  110.200  105.600\n'
p295
sb.